; Function Attrs: nounwind uwtable
define i64 @luckyCanonicizer_final_fast_6Vars(i64 noundef %0, ptr noundef %1, ptr noundef %2, ptr noundef captures(none) initializes((0, 4)) %3) local_unnamed_addr #7 {
  %5 = alloca i64, align 8
  store i64 %0, ptr %5, align 8, !tbaa !10
  %6 = call i32 @Kit_TruthSemiCanonicize_Yasha1(ptr noundef nonnull %5, i32 noundef 6, ptr noundef %2, ptr noundef %1) #10
  store i32 %6, ptr %3, align 4, !tbaa !8
  %7 = load i64, ptr %5, align 8, !tbaa !10
  %8 = call i64 @Extra_Truth6MinimumRoundMany1(i64 noundef %7, ptr noundef %1, ptr noundef %2, ptr noundef nonnull %3)
  ret i64 %8
}